target datalayout = "e-m:e-p270:32:32-p271:32:32-p272:64:64-i64:64-i128:128-f80:128-n8:16:32:64-S128"
target triple = "x86_64-unknown-linux-gnu"

%"class.sat::literal" = type { i32 }
%"class.sat::aig_cuts" = type { %class.random_gen, %"struct.sat::aig_cuts::config", %class.vector, %class.svector, %class.region, %"class.sat::cut_set", %"class.sat::cut_set", %"class.sat::cut_set", %class.vector.1, %class.svector.2, %class.svector.2, i32, i32, %class.svector.4, i32, %"class.std::function", %"class.std::function", %"class.std::function.6", %"class.std::function.6", %class.svector, [6 x ptr], [6 x i64], [6 x %"class.sat::literal"] }
%class.random_gen = type { i32 }
%"struct.sat::aig_cuts::config" = type <{ i32, i32, i32, i8, [3 x i8] }>
%class.vector = type { ptr }
%class.region = type { ptr, ptr, ptr, ptr, ptr }
%"class.sat::cut_set" = type { i32, ptr, i32, i32, ptr }
%class.vector.1 = type { ptr }
%class.svector.2 = type { %class.vector.3 }
%class.vector.3 = type { ptr }
%class.svector.4 = type { %class.vector.5 }
%class.vector.5 = type { ptr }
%"class.std::function" = type { %"class.std::_Function_base", ptr }
%"class.std::_Function_base" = type { %"union.std::_Any_data", ptr }
%"union.std::_Any_data" = type { %"union.std::_Nocopy_types" }
%"union.std::_Nocopy_types" = type { { i64, i64 } }
%"class.std::function.6" = type { %"class.std::_Function_base", ptr }
%class.svector = type { %class.vector.0 }
%class.vector.0 = type { ptr }

; Function Attrs: mustprogress nounwind uwtable
define linkonce_odr hidden noundef nonnull align 4 dereferenceable(4) ptr @_ZNK6vectorIjLb0EjEixEj(ptr noundef nonnull align 8 dereferenceable(8) %this, i32 noundef %idx) #4 comdat align 2 {
entry:
  %this.addr = alloca ptr, align 8
  %idx.addr = alloca i32, align 4
  store ptr %this, ptr %this.addr, align 8
  store i32 %idx, ptr %idx.addr, align 4
  %this1 = load ptr, ptr %this.addr, align 8
  %m_data = getelementptr inbounds %class.vector.3, ptr %this1, i32 0, i32 0
  %0 = load ptr, ptr %m_data, align 8
  %1 = load i32, ptr %idx.addr, align 4
  %idxprom = zext i32 %1 to i64
  %arrayidx = getelementptr inbounds i32, ptr %0, i64 %idxprom
  ret ptr %arrayidx
}

; Function Attrs: mustprogress uwtable
define linkonce_odr hidden void @_ZN3sat8aig_cuts5evictERNS_7cut_setEj(ptr noundef nonnull align 8 dereferenceable(480) %this, ptr noundef nonnull align 8 dereferenceable(32) %cs, i32 noundef %idx) #5 comdat align 2 {
entry:
  %this.addr = alloca ptr, align 8
  %cs.addr = alloca ptr, align 8
  %idx.addr = alloca i32, align 4
  store ptr %this, ptr %this.addr, align 8
  store ptr %cs, ptr %cs.addr, align 8
  store i32 %idx, ptr %idx.addr, align 4
  %this1 = load ptr, ptr %this.addr, align 8
  %0 = load ptr, ptr %cs.addr, align 8
  %m_on_cut_del = getelementptr inbounds %"class.sat::aig_cuts", ptr %this1, i32 0, i32 18
  %1 = load i32, ptr %idx.addr, align 4
  call void @_ZN3sat7cut_set5evictERSt8functionIFvjRKNS_3cutEEEj(ptr noundef nonnull align 8 dereferenceable(32) %0, ptr noundef nonnull align 8 dereferenceable(32) %m_on_cut_del, i32 noundef %1)
  ret void
}

; Function Attrs: mustprogress nounwind uwtable
define linkonce_odr hidden noundef i32 @_ZN10random_genclEv(ptr noundef nonnull align 4 dereferenceable(4) %this) #4 comdat align 2 {
entry:
  %this.addr = alloca ptr, align 8
  store ptr %this, ptr %this.addr, align 8
  %this1 = load ptr, ptr %this.addr, align 8
  %m_data = getelementptr inbounds %class.random_gen, ptr %this1, i32 0, i32 0
  %0 = load i32, ptr %m_data, align 4
  %conv = zext i32 %0 to i64
  %mul = mul nsw i64 %conv, 214013
  %add = add nsw i64 %mul, 2531011
  %conv2 = trunc i64 %add to i32
  %m_data3 = getelementptr inbounds %class.random_gen, ptr %this1, i32 0, i32 0
  store i32 %conv2, ptr %m_data3, align 4
  %shr = lshr i32 %conv2, 16
  %and = and i32 %shr, 32767
  ret i32 %and
}

; Function Attrs: mustprogress nounwind uwtable
define linkonce_odr hidden noundef i32 @_ZNK3sat7cut_set4sizeEv(ptr noundef nonnull align 8 dereferenceable(32) %this) #4 comdat align 2 {
entry:
  %this.addr = alloca ptr, align 8
  store ptr %this, ptr %this.addr, align 8
  %this1 = load ptr, ptr %this.addr, align 8
  %m_size = getelementptr inbounds %"class.sat::cut_set", ptr %this1, i32 0, i32 2
  %0 = load i32, ptr %m_size, align 8
  ret i32 %0
}

; Function Attrs: mustprogress uwtable
define linkonce_odr hidden noundef i32 @_ZNK3sat8aig_cuts15max_cutset_sizeEj(ptr noundef nonnull align 8 dereferenceable(480) %this, i32 noundef %v) #5 comdat align 2 {
entry:
  %this.addr = alloca ptr, align 8
  %v.addr = alloca i32, align 4
  store ptr %this, ptr %this.addr, align 8
  store i32 %v, ptr %v.addr, align 4
  %this1 = load ptr, ptr %this.addr, align 8
  %0 = load i32, ptr %v.addr, align 4
  %cmp = icmp eq i32 %0, -1
  br i1 %cmp, label %cond.true, label %cond.false

cond.true:                                        ; preds = %entry
  %m_config = getelementptr inbounds %"class.sat::aig_cuts", ptr %this1, i32 0, i32 1
  %m_max_cutset_size = getelementptr inbounds %"struct.sat::aig_cuts::config", ptr %m_config, i32 0, i32 0
  %1 = load i32, ptr %m_max_cutset_size, align 4
  br label %cond.end

cond.false:                                       ; preds = %entry
  %m_max_cutset_size2 = getelementptr inbounds %"class.sat::aig_cuts", ptr %this1, i32 0, i32 9
  %2 = load i32, ptr %v.addr, align 4
  %call = call noundef nonnull align 4 dereferenceable(4) ptr @_ZNK6vectorIjLb0EjEixEj(ptr noundef nonnull align 8 dereferenceable(8) %m_max_cutset_size2, i32 noundef %2)
  %3 = load i32, ptr %call, align 4
  br label %cond.end

cond.end:                                         ; preds = %cond.false, %cond.true
  %cond = phi i32 [ %1, %cond.true ], [ %3, %cond.false ]
  ret i32 %cond
}

; Function Attrs: mustprogress uwtable
define hidden noundef zeroext i1 @_ZN3sat8aig_cuts10insert_cutEjRKNS_3cutERNS_7cut_setE(ptr noundef nonnull align 8 dereferenceable(480) %this, i32 noundef %v, ptr noundef nonnull align 8 dereferenceable(48) %c, ptr noundef nonnull align 8 dereferenceable(32) %cs) #5 align 2 {
entry:
  %retval = alloca i1, align 1
  %this.addr = alloca ptr, align 8
  %v.addr = alloca i32, align 4
  %c.addr = alloca ptr, align 8
  %cs.addr = alloca ptr, align 8
  %idx = alloca i32, align 4
  store ptr %this, ptr %this.addr, align 8
  store i32 %v, ptr %v.addr, align 4
  store ptr %c, ptr %c.addr, align 8
  store ptr %cs, ptr %cs.addr, align 8
  %this1 = load ptr, ptr %this.addr, align 8
  %0 = load ptr, ptr %cs.addr, align 8
  %m_on_cut_add = getelementptr inbounds %"class.sat::aig_cuts", ptr %this1, i32 0, i32 17
  %m_on_cut_del = getelementptr inbounds %"class.sat::aig_cuts", ptr %this1, i32 0, i32 18
  %1 = load ptr, ptr %c.addr, align 8
  %call = call noundef zeroext i1 @_ZN3sat7cut_set6insertERSt8functionIFvjRKNS_3cutEEES7_S4_(ptr noundef nonnull align 8 dereferenceable(32) %0, ptr noundef nonnull align 8 dereferenceable(32) %m_on_cut_add, ptr noundef nonnull align 8 dereferenceable(32) %m_on_cut_del, ptr noundef nonnull align 8 dereferenceable(48) %1)
  br i1 %call, label %if.end, label %if.then

if.then:                                          ; preds = %entry
  store i1 true, ptr %retval, align 1
  br label %return

if.end:                                           ; preds = %entry
  %m_num_cuts = getelementptr inbounds %"class.sat::aig_cuts", ptr %this1, i32 0, i32 12
  %2 = load i32, ptr %m_num_cuts, align 4
  %inc = add i32 %2, 1
  store i32 %inc, ptr %m_num_cuts, align 4
  %m_insertions = getelementptr inbounds %"class.sat::aig_cuts", ptr %this1, i32 0, i32 14
  %3 = load i32, ptr %m_insertions, align 8
  %inc2 = add i32 %3, 1
  store i32 %inc2, ptr %m_insertions, align 8
  %4 = load i32, ptr %v.addr, align 4
  %call3 = call noundef i32 @_ZNK3sat8aig_cuts15max_cutset_sizeEj(ptr noundef nonnull align 8 dereferenceable(480) %this1, i32 noundef %4)
  %cmp = icmp ugt i32 %inc2, %call3
  br i1 %cmp, label %if.then4, label %if.end5

if.then4:                                         ; preds = %if.end
  store i1 false, ptr %retval, align 1
  br label %return

if.end5:                                          ; preds = %if.end
  br label %while.cond

while.cond:                                       ; preds = %while.body, %if.end5
  %5 = load ptr, ptr %cs.addr, align 8
  %call6 = call noundef i32 @_ZNK3sat7cut_set4sizeEv(ptr noundef nonnull align 8 dereferenceable(32) %5)
  %6 = load i32, ptr %v.addr, align 4
  %call7 = call noundef i32 @_ZNK3sat8aig_cuts15max_cutset_sizeEj(ptr noundef nonnull align 8 dereferenceable(480) %this1, i32 noundef %6)
  %cmp8 = icmp uge i32 %call6, %call7
  br i1 %cmp8, label %while.body, label %while.end

while.body:                                       ; preds = %while.cond
  %m_rand = getelementptr inbounds %"class.sat::aig_cuts", ptr %this1, i32 0, i32 0
  %call9 = call noundef i32 @_ZN10random_genclEv(ptr noundef nonnull align 4 dereferenceable(4) %m_rand)
  %7 = load ptr, ptr %cs.addr, align 8
  %call10 = call noundef i32 @_ZNK3sat7cut_set4sizeEv(ptr noundef nonnull align 8 dereferenceable(32) %7)
  %sub = sub i32 %call10, 1
  %rem = urem i32 %call9, %sub
  %add = add i32 1, %rem
  store i32 %add, ptr %idx, align 4
  %8 = load ptr, ptr %cs.addr, align 8
  %9 = load i32, ptr %idx, align 4
  call void @_ZN3sat8aig_cuts5evictERNS_7cut_setEj(ptr noundef nonnull align 8 dereferenceable(480) %this1, ptr noundef nonnull align 8 dereferenceable(32) %8, i32 noundef %9)
  br label %while.cond, !llvm.loop !9

while.end:                                        ; preds = %while.cond
  store i1 true, ptr %retval, align 1
  br label %return

return:                                           ; preds = %while.end, %if.then4, %if.then
  %10 = load i1, ptr %retval, align 1
  ret i1 %10
}