; Function Attrs: mustprogress uwtable
define hidden noundef zeroext i1 @_ZN3sat8aig_cuts10insert_cutEjRKNS_3cutERNS_7cut_setE(ptr noundef nonnull align 8 dereferenceable(480) %this, i32 noundef %v, ptr noundef nonnull align 8 dereferenceable(48) %c, ptr noundef nonnull align 8 dereferenceable(32) %cs) local_unnamed_addr #3 align 2 {
entry:
  %m_on_cut_add = getelementptr inbounds i8, ptr %this, i64 288
  %m_on_cut_del = getelementptr inbounds i8, ptr %this, i64 320
  %call = tail call noundef zeroext i1 @_ZN3sat7cut_set6insertERSt8functionIFvjRKNS_3cutEEES7_S4_(ptr noundef nonnull align 8 dereferenceable(32) %cs, ptr noundef nonnull align 8 dereferenceable(32) %m_on_cut_add, ptr noundef nonnull align 8 dereferenceable(32) %m_on_cut_del, ptr noundef nonnull align 8 dereferenceable(48) %c)
  br i1 %call, label %if.end, label %return

if.end:                                           ; preds = %entry
  %m_num_cuts = getelementptr inbounds i8, ptr %this, i64 204
  %0 = load i32, ptr %m_num_cuts, align 4
  %inc = add i32 %0, 1
  store i32 %inc, ptr %m_num_cuts, align 4
  %m_insertions = getelementptr inbounds i8, ptr %this, i64 216
  %1 = load i32, ptr %m_insertions, align 8
  %inc2 = add i32 %1, 1
  store i32 %inc2, ptr %m_insertions, align 8
  %cmp.i = icmp eq i32 %v, -1
  %m_config.i = getelementptr inbounds i8, ptr %this, i64 4
  %m_max_cutset_size2.i = getelementptr inbounds i8, ptr %this, i64 184
  %2 = load ptr, ptr %m_max_cutset_size2.i, align 8
  %idxprom.i.i = zext i32 %v to i64
  %arrayidx.i.i = getelementptr inbounds i32, ptr %2, i64 %idxprom.i.i
  %cond.in.i = select i1 %cmp.i, ptr %m_config.i, ptr %arrayidx.i.i
  %cond.i = load i32, ptr %cond.in.i, align 4
  %cmp = icmp ugt i32 %inc2, %cond.i
  br i1 %cmp, label %return, label %while.cond.preheader

while.cond.preheader:                             ; preds = %if.end
  %m_size.i = getelementptr inbounds i8, ptr %cs, i64 16
  %3 = load i32, ptr %m_size.i, align 8
  %cmp8.not16 = icmp ult i32 %3, %cond.i
  br i1 %cmp8.not16, label %return, label %while.body.lr.ph

while.body.lr.ph:                                 ; preds = %while.cond.preheader
  br i1 %cmp.i, label %while.body.us, label %while.body

while.body.us:                                    ; preds = %while.body.lr.ph, %while.body.us
  %4 = load i32, ptr %this, align 8
  %mul.i.us = mul i32 %4, 214013
  %add.i.us = add i32 %mul.i.us, 2531011
  store i32 %add.i.us, ptr %this, align 8
  %shr.i.us = lshr i32 %add.i.us, 16
  %and.i.us = and i32 %shr.i.us, 32767
  %5 = load i32, ptr %m_size.i, align 8
  %sub.us = add i32 %5, -1
  %rem.us = urem i32 %and.i.us, %sub.us
  %add.us = add nuw nsw i32 %rem.us, 1
  tail call void @_ZN3sat7cut_set5evictERSt8functionIFvjRKNS_3cutEEEj(ptr noundef nonnull align 8 dereferenceable(32) %cs, ptr noundef nonnull align 8 dereferenceable(32) %m_on_cut_del, i32 noundef %add.us)
  %6 = load i32, ptr %m_size.i, align 8
  %cond.i11.us = load i32, ptr %m_config.i, align 4
  %cmp8.not.us = icmp ult i32 %6, %cond.i11.us
  br i1 %cmp8.not.us, label %return, label %while.body.us, !llvm.loop !17

while.body:                                       ; preds = %while.body.lr.ph, %while.body
  %7 = load i32, ptr %this, align 8
  %mul.i = mul i32 %7, 214013
  %add.i = add i32 %mul.i, 2531011
  store i32 %add.i, ptr %this, align 8
  %shr.i = lshr i32 %add.i, 16
  %and.i = and i32 %shr.i, 32767
  %8 = load i32, ptr %m_size.i, align 8
  %sub = add i32 %8, -1
  %rem = urem i32 %and.i, %sub
  %add = add nuw nsw i32 %rem, 1
  tail call void @_ZN3sat7cut_set5evictERSt8functionIFvjRKNS_3cutEEEj(ptr noundef nonnull align 8 dereferenceable(32) %cs, ptr noundef nonnull align 8 dereferenceable(32) %m_on_cut_del, i32 noundef %add)
  %9 = load i32, ptr %m_size.i, align 8
  %10 = load ptr, ptr %m_max_cutset_size2.i, align 8
  %arrayidx.i.i9 = getelementptr inbounds i32, ptr %10, i64 %idxprom.i.i
  %cond.i11 = load i32, ptr %arrayidx.i.i9, align 4
  %cmp8.not = icmp ult i32 %9, %cond.i11
  br i1 %cmp8.not, label %return, label %while.body, !llvm.loop !17

return:                                           ; preds = %while.body, %while.body.us, %while.cond.preheader, %if.end, %entry
  %retval.0 = phi i1 [ true, %entry ], [ false, %if.end ], [ true, %while.cond.preheader ], [ true, %while.body.us ], [ true, %while.body ]
  ret i1 %retval.0
}